target datalayout = "e-m:e-p270:32:32-p271:32:32-p272:64:64-i64:64-i128:128-f80:128-n8:16:32:64-S128"
target triple = "x86_64-pc-linux-gnu"

; Function Attrs: nounwind uwtable
define i32 @pqPacketSend(ptr noundef %0, i8 noundef signext %1, ptr noundef %2, i64 noundef %3) #0 {
  %5 = alloca i32, align 4
  %6 = alloca ptr, align 8
  %7 = alloca i8, align 1
  %8 = alloca ptr, align 8
  %9 = alloca i64, align 8
  store ptr %0, ptr %6, align 8
  store i8 %1, ptr %7, align 1
  store ptr %2, ptr %8, align 8
  store i64 %3, ptr %9, align 8
  %10 = load i8, ptr %7, align 1
  %11 = load ptr, ptr %6, align 8
  %12 = call i32 @pqPutMsgStart(i8 noundef signext %10, ptr noundef %11)
  %13 = icmp ne i32 %12, 0
  br i1 %13, label %14, label %15

14:                                               ; preds = %4
  store i32 -1, ptr %5, align 4
  br label %33

15:                                               ; preds = %4
  %16 = load ptr, ptr %8, align 8
  %17 = load i64, ptr %9, align 8
  %18 = load ptr, ptr %6, align 8
  %19 = call i32 @pqPutnchar(ptr noundef %16, i64 noundef %17, ptr noundef %18)
  %20 = icmp ne i32 %19, 0
  br i1 %20, label %21, label %22

21:                                               ; preds = %15
  store i32 -1, ptr %5, align 4
  br label %33

22:                                               ; preds = %15
  %23 = load ptr, ptr %6, align 8
  %24 = call i32 @pqPutMsgEnd(ptr noundef %23)
  %25 = icmp ne i32 %24, 0
  br i1 %25, label %26, label %27

26:                                               ; preds = %22
  store i32 -1, ptr %5, align 4
  br label %33

27:                                               ; preds = %22
  %28 = load ptr, ptr %6, align 8
  %29 = call i32 @pqFlush(ptr noundef %28)
  %30 = icmp ne i32 %29, 0
  br i1 %30, label %31, label %32

31:                                               ; preds = %27
  store i32 -1, ptr %5, align 4
  br label %33

32:                                               ; preds = %27
  store i32 0, ptr %5, align 4
  br label %33

33:                                               ; preds = %32, %31, %26, %21, %14
  %34 = load i32, ptr %5, align 4
  ret i32 %34
}