; Function Attrs: nounwind uwtable
define range(i32 -1, 1) i32 @pqPacketSend(ptr noundef %0, i8 noundef signext %1, ptr noundef %2, i64 noundef %3) local_unnamed_addr #0 {
  %5 = tail call i32 @pqPutMsgStart(i8 noundef signext %1, ptr noundef %0) #25
  %.not = icmp eq i32 %5, 0
  br i1 %.not, label %6, label %12

6:                                                ; preds = %4
  %7 = tail call i32 @pqPutnchar(ptr noundef %2, i64 noundef %3, ptr noundef %0) #25
  %.not7 = icmp eq i32 %7, 0
  br i1 %.not7, label %8, label %12

8:                                                ; preds = %6
  %9 = tail call i32 @pqPutMsgEnd(ptr noundef %0) #25
  %.not8 = icmp eq i32 %9, 0
  br i1 %.not8, label %10, label %12

10:                                               ; preds = %8
  %11 = tail call i32 @pqFlush(ptr noundef %0) #25
  %.not9 = icmp ne i32 %11, 0
  %. = sext i1 %.not9 to i32
  br label %12

12:                                               ; preds = %10, %8, %6, %4
  %.0 = phi i32 [ -1, %4 ], [ -1, %6 ], [ -1, %8 ], [ %., %10 ]
  ret i32 %.0
}